target datalayout = "e-m:e-p270:32:32-p271:32:32-p272:64:64-i64:64-i128:128-f80:128-n8:16:32:64-S128"
target triple = "x86_64-pc-linux-gnu"

%struct.md4_state_st = type { [4 x i32], i32, i32, [64 x i8], i32 }

; Function Attrs: nounwind uwtable
define hidden i32 @MD4_Init(ptr noundef %0) #0 {
  %2 = alloca ptr, align 8
  store ptr %0, ptr %2, align 8, !tbaa !13
  %3 = load ptr, ptr %2, align 8, !tbaa !13
  call void @llvm.memset.p0.i64(ptr align 4 %3, i8 0, i64 92, i1 false)
  %4 = load ptr, ptr %2, align 8, !tbaa !13
  %5 = getelementptr inbounds nuw %struct.md4_state_st, ptr %4, i32 0, i32 0
  %6 = getelementptr inbounds [4 x i32], ptr %5, i64 0, i64 0
  store i32 1732584193, ptr %6, align 4, !tbaa !15
  %7 = load ptr, ptr %2, align 8, !tbaa !13
  %8 = getelementptr inbounds nuw %struct.md4_state_st, ptr %7, i32 0, i32 0
  %9 = getelementptr inbounds [4 x i32], ptr %8, i64 0, i64 1
  store i32 -271733879, ptr %9, align 4, !tbaa !15
  %10 = load ptr, ptr %2, align 8, !tbaa !13
  %11 = getelementptr inbounds nuw %struct.md4_state_st, ptr %10, i32 0, i32 0
  %12 = getelementptr inbounds [4 x i32], ptr %11, i64 0, i64 2
  store i32 -1732584194, ptr %12, align 4, !tbaa !15
  %13 = load ptr, ptr %2, align 8, !tbaa !13
  %14 = getelementptr inbounds nuw %struct.md4_state_st, ptr %13, i32 0, i32 0
  %15 = getelementptr inbounds [4 x i32], ptr %14, i64 0, i64 3
  store i32 271733878, ptr %15, align 4, !tbaa !15
  ret i32 1
}